(lp0
VEXPERIMENT_ID
p1
aVSAMPLE_ID
p2
aVTECHNICAL_REPLICATE_ID
p3
aVBIOLOGICAL_REPLICATE_ID
p4
aVCONTACT_PERSON
p5
aVCONTACT_LAB
p6
aVEXPERIMENT_DATE
p7
aVEXPERIMENT_TYPE
p8
aVEXTRACTION_PROTOCOL
p9
aVEXTRACTION_PROTOCOL_STARTING_NR_CELLS
p10
aVEXTRACTION_PROTOCOL_SONICATION_FRAGMENT_SIZE_RANGE
p11
aVLIBRARY_GENERATION_ADAPTOR_LIGATION_PROTOCOL
p12
aVLIBRARY_GENERATION_ADAPTOR_SEQUENCE
p13
aVLIBRARY_GENERATION_PROTOCOL
p14
aVLIBRARY_GENERATION_INITIAL_INPUT_QNTY
p15
aVLIBRARY_GENERATION_PCR_F_PRIMER_SEQUENCE
p16
aVLIBRARY_GENERATION_PCR_NUMBER_CYCLES
p17
aVLIBRARY_GENERATION_PCR_POLYMERASE_TYPE
p18
aVLIBRARY_GENERATION_PCR_PRIMER_CONC
p19
aVLIBRARY_GENERATION_PCR_PRODUCT_ISOLATION_PROTOCOL
p20
aVLIBRARY_GENERATION_PCR_R_PRIMER_SEQUENCE
p21
aVLIBRARY_GENERATION_PCR_TEMPLATE_CONC
p22
aVLIBRARY_GENERATION_PCR_THERMOCYCLING_PROGRAM
p23
aVLIBRARY_GENERATION_PCR_PRODUCT_LENGTH
p24
aVLIBRARY_GENERATION_FRAGMENT_SIZE_SELECTION
p25
aVLIBRARY_GENERATION_cDNA_FRAGMENTATION
p26
aVCHIP_PROTOCOL
p27
aVCHIP_PROTOCOL_CHROMATIN_AMOUNT
p28
aVCHIP_ANTIBODY
p29
aVCHIP_ANTIBODY_CATALOG
p30
aVCHIP_ANTIBODY_LOT
p31
aVCHIP_ANTIBODY_PROVIDER
p32
aVCHIP_PROTOCOL_ANTIBODY_AMOUNT
p33
aVCHIP_PROTOCOL_BEAD_AMOUNT
p34
aVCHIP_PROTOCOL_BEAD_TYPE
p35
aVCHIP_PROTOCOL_PERC_CH2O_CROSSLINKING
p36
aVCHIP_PROTOCOL_DURATION_CROSSLINKING
p37
aVCHIP_PROTOCOL_SHEARING_METHOD
p38
aVCHIP_PROTOCOL_SHEARING_CYCLES
p39
aVCHIP_PROTOCOL_SHEARING_FREQUENCY
p40
aVCHIP_PROTOCOL_IPSTAR_CONDITIONS
p41
aVCOLLECTION_METHOD
p42
aVPASSAGE
p43
a.