(lp0
VEXPERIMENT_TYPE
p1
aVCONTACT_PERSON
p2
aVCONTACT_LAB
p3
aVSAMPLE_ID
p4
aVEXPERIMENT_DATE
p5
aVEXPERIMENT_ID
p6
aVTECHNICAL_REPLICATE_ID
p7
aVFULL_LENGTH_PROTOCOL_LINK
p8
aVLIBRARY_GENERATION_PROTOCOL
p9
aVLIBRARY_GENERATION_INITIAL_INPUT_QNTY
p10
aVLIBRARY_GENERATION_PCR_F_PRIMER_SEQUENCE
p11
aVLIBRARY_GENERATION_PCR_NUMBER_CYCLES
p12
aVLIBRARY_GENERATION_PCR_POLYMERASE_TYPE
p13
aVLIBRARY_GENERATION_PCR_PRODUCT_ISOLATION_PROTOCOL
p14
aVLIBRARY_GENERATION_PCR_R_PRIMER_SEQUENCE
p15
aVLIBRARY_GENERATION_PCR_TEMPLATE_CONC
p16
aVLIBRARY_GENERATION_PCR_THERMOCYCLING_PROGRAM
p17
aVLIBRARY_GENERATION_PCR_PRODUCT_LENGTH
p18
aVLIBRARY_GENERATION_FRAGMENT_SIZE_SELECTION
p19
aVLIBRARY_GENERATION_cDNA_FRAGMENTATION
p20
aVRNA_PROTOCOL_ENRICHMENT
p21
aVRNA_cDNA_PREPARATION_INITIAL_RNA_QNTY
p22
aVRNA_cDNA_PREPARATION_PCR_NUMBER_CYCLES
p23
aVRNA_cDNA_PREPARATION_REVERSE_TRANSCRIPTION_PROTOCOL_1
p24
aVRNA_EXTRACTION_PROTOCOL
p25
aVRNA_EXTRACTION_PROTOCOL_FRAGMENTATION
p26
aVRNA_PREPARATION_FRAGMENT_SIZE_RANGE
p27
aVRNA_PREPARATION_INITIAL_QNTY
p28
aVRNA_cDNA_PREPARATION_REVERSE_TRANSCRIPTION_PROTOCOL
p29
aVRNA_PREPARATION_3'_RNA
p30
aVRNA_PREPARATION_3'_RNA_ADAPTER_SEQUENCE
p31
aVRNA_PREPARATION_5'_DEPHOSPHORYLATION
p32
aVRNA_PREPARATION_5'_PHOSPHORYLATION
p33
aVRNA_PREPARATION_5'_RNA_ADAPTER_LIGATION_PROTOCOL
p34
aVRNA_PREPARATION_5'_RNA_ADAPTER_SEQUENCE
p35
aVRNA_PREPARATION_REVERSE_TRANSCRIPTION_PRIMER_SEQUENCE
p36
aVRNA_PREPARATION_REVERSE_TRANSCRIPTION_PROTOCOL
p37
aVSEQUENCING_PLATFORM
p38
aVSEQUENCING_PLATFORM_VERSION
p39
aVSEQUENCING_CYCLES
p40
aVSEQUENCING_PE_TYPE
p41
aVSEQUENCING_LANE
p42
aVSEQUENCING_DATE
p43
aVSEQUENCING_RUN_TYPE
p44
aVSEQUENCING_CHEMISTRY_VERSION
p45
aVSEQUENCING_CLUSTER_GENERATION_KIT_VERSION
p46
aVSEQUENCING_PROCESSING_SOFTWARE_VERSION
p47
aVSEQUENCING_CONTROL_SOFTWARE_VERSION
p48
a.