(lp0
VEXPERIMENT_TYPE
p1
aVCONTACT_PERSON
p2
aVCONTACT_LAB
p3
aVSAMPLE_ID
p4
aVEXPERIMENT_ID
p5
aVEXPERIMENT_DATE
p6
aVTECHNICAL_REPLICATE_ID
p7
aVBIOLOGICAL_REPLICATE_ID
p8
aVEXTRACTION_PROTOCOL
p9
aVEXTRACTION_PROTOCOL_STARTING_NR_CELLS
p10
aVEXTRACTION_PROTOCOL_TYPE_OF_SONICATOR
p11
aVEXTRACTION_PROTOCOL_SONICATION_FRAGMENT_SIZE_RANGE
p12
aVLIBRARY_GENERATION_ADAPTOR_LIGATION_PROTOCOL
p13
aVLIBRARY_GENERATION_ADAPTOR_SEQUENCE
p14
aVLIBRARY_GENERATION_PROTOCOL
p15
aVLIBRARY_GENERATION_INITIAL_INPUT_QNTY
p16
aVLIBRARY_GENERATION_PCR_F_PRIMER_SEQUENCE
p17
aVLIBRARY_GENERATION_PCR_NUMBER_CYCLES
p18
aVLIBRARY_GENERATION_PCR_POLYMERASE_TYPE
p19
aVLIBRARY_GENERATION_PCR_PRIMER_CONC
p20
aVLIBRARY_GENERATION_PCR_PRODUCT_ISOLATION_PROTOCOL
p21
aVLIBRARY_GENERATION_PCR_R_PRIMER_SEQUENCE
p22
aVLIBRARY_GENERATION_PCR_TEMPLATE_CONC
p23
aVLIBRARY_GENERATION_PCR_THERMOCYCLING_PROGRAM
p24
aVLIBRARY_GENERATION_PCR_PRODUCT_LENGTH
p25
aVChromatinAccessibility_METHOD
p26
aVChromatinAccessibility_PROTOCOL
p27
aVChromatinAccessibility_CHROMATIN_AMOUNT
p28
aVChromatinAccessibility_ENZYME
p29
aVChromatinAccessibility_ENZYME_PROVIDER
p30
aVChromatinAccessibility_ENZYME_LOT
p31
aVChromatinAccessibility_CHROMATIN_STATUS
p32
aVChromatinAccessibility_ENZYME_AMOUNT
p33
aVSEQUENCING_PLATFORM
p34
aVSEQUENCING_PLATFORM_VERSION
p35
aVSEQUENCING_CYCLES
p36
aVSEQUENCING_PE_TYPE
p37
aVSEQUENCING_LANE
p38
aVSEQUENCING_DATE
p39
aVSEQUENCING_RUN_TYPE
p40
aVSEQUENCING_CHEMISTRY_VERSION
p41
aVSEQUENCING_CLUSTER_GENERATION_KIT_VERSION
p42
aVSEQUENCING_PROCESSING_SOFTWARE_VERSION
p43
aVSEQUENCING_CONTROL_SOFTWARE_VERSION
p44
a.