(lp0
VEXPERIMENT_TYPE
p1
aVCONTACT_PERSON
p2
aVCONTACT_LAB
p3
aVSAMPLE_ID
p4
aVEXPERIMENT_ID
p5
aVEXPERIMENT_DATE
p6
aVTECHNICAL_REPLICATE_ID
p7
aVBIOLOGICAL_REPLICATE_ID
p8
aVEXTRACTION_PROTOCOL
p9
aVEXTRACTION_PROTOCOL_STARTING_NR_CELLS
p10
aVEXTRACTION_PROTOCOL_TYPE_OF_SONICATOR
p11
aVEXTRACTION_PROTOCOL_SONICATION_FRAGMENT_SIZE_RANGE
p12
aVBISULFITE_CONVERSION_PROTOCOL
p13
aVBISULFITE_CONVERSION_KIT_PROVIDER
p14
aVLIBRARY_GENERATION_ADAPTOR_LIGATION_PROTOCOL
p15
aVLIBRARY_GENERATION_ADAPTOR_SEQUENCE
p16
aVLIBRARY_GENERATION_PROTOCOL
p17
aVLIBRARY_GENERATION_INITIAL_INPUT_QNTY
p18
aVLIBRARY_GENERATION_PCR_F_PRIMER_SEQUENCE
p19
aVLIBRARY_GENERATION_PCR_NUMBER_CYCLES
p20
aVLIBRARY_GENERATION_PCR_POLYMERASE_TYPE
p21
aVLIBRARY_GENERATION_PCR_PRODUCT_ISOLATION_PROTOCOL
p22
aVLIBRARY_GENERATION_PCR_R_PRIMER_SEQUENCE
p23
aVLIBRARY_GENERATION_PCR_PRODUCT_LENGTH
p24
aVLIBRARY_GENERATION_FRAGMENT_SIZE_SELECTION
p25
aVSEQUENCING_PLATFORM
p26
aVSEQUENCING_PLATFORM_VERSION
p27
aVSEQUENCING_CYCLES
p28
aVSEQUENCING_PE_TYPE
p29
aVSEQUENCING_LANE
p30
aVSEQUENCING_DATE
p31
aVSEQUENCING_RUN_TYPE
p32
aVSEQUENCING_CHEMISTRY_VERSION
p33
aVSEQUENCING_CLUSTER_GENERATION_KIT_VERSION
p34
aVSEQUENCING_PROCESSING_SOFTWARE_VERSION
p35
aVSEQUENCING_CONTROL_SOFTWARE_VERSION
p36
a.