(lp0
VEXPERIMENT_TYPE
p1
aVCONTACT_PERSON
p2
aVCONTACT_LAB
p3
aVSAMPLE_ID
p4
aVEXPERIMENT_ID
p5
aVTECHNICAL_REPLICATE_ID
p6
aVFULL_LENGTH_PROTOCOL_LINK
p7
aVLIBRARY_GENERATION_PROTOCOL
p8
aVLIBRARY_GENERATION_INITIAL_INPUT_QNTY
p9
aVLIBRARY_GENERATION_PCR_F_PRIMER_SEQUENCE
p10
aVLIBRARY_GENERATION_PCR_NUMBER_CYCLES
p11
aVLIBRARY_GENERATION_PCR_POLYMERASE_TYPE
p12
aVLIBRARY_GENERATION_PCR_PRODUCT_ISOLATION_PROTOCOL
p13
aVLIBRARY_GENERATION_PCR_R_PRIMER_SEQUENCE
p14
aVLIBRARY_GENERATION_PCR_TEMPLATE_CONC
p15
aVLIBRARY_GENERATION_PCR_THERMOCYCLING_PROGRAM
p16
aVLIBRARY_GENERATION_PCR_PRODUCT_LENGTH
p17
aVLIBRARY_GENERATION_FRAGMENT_SIZE_SELECTION
p18
aVLIBRARY_GENERATION_cDNA_FRAGMENTATION
p19
aVRNA_PROTOCOL_ENRICHMENT
p20
aVRNA_cDNA_PREPARATION_INITIAL_RNA_QNTY
p21
aVRNA_cDNA_PREPARATION_PCR_NUMBER_CYCLES
p22
aVRNA_cDNA_PREPARATION_REVERSE_TRANSCRIPTION_PROTOCOL
p23
aVRNA_EXTRACTION_PROTOCOL
p24
aVRNA_EXTRACTION_PROTOCOL_FRAGMENTATION
p25
aVRNA_PREPARATION_FRAGMENT_SIZE_RANGE
p26
aVRNA_PREPARATION_INITIAL_QNTY
p27
aVRNA_PREPARATION_3'_RNA
p28
aVRNA_PREPARATION_3'_RNA_ADAPTER_SEQUENCE
p29
aVRNA_PREPARATION_5'_DEPHOSPHORYLATION
p30
aVRNA_PREPARATION_5'_PHOSPHORYLATION
p31
aVRNA_PREPARATION_5'_RNA_ADAPTER_LIGATION_PROTOCOL
p32
aVRNA_PREPARATION_5'_RNA_ADAPTER_SEQUENCE
p33
aVRNA_PREPARATION_REVERSE_TRANSCRIPTION_PRIMER_SEQUENCE
p34
aVRNA_PREPARATION_REVERSE_TRANSCRIPTION_PROTOCOL
p35
aVSEQUENCING_PLATFORM
p36
aVSEQUENCING_PLATFORM_VERSION
p37
aVSEQUENCING_CYCLES
p38
aVSEQUENCING_PE_TYPE
p39
aVSEQUENCING_LANE
p40
aVSEQUENCING_DATE
p41
aVSEQUENCING_RUN_TYPE
p42
aVSEQUENCING_CHEMISTRY_VERSION
p43
aVSEQUENCING_CLUSTER_GENERATION_KIT_VERSION
p44
aVSEQUENCING_PROCESSING_SOFTWARE_VERSION
p45
aVSEQUENCING_CONTROL_SOFTWARE_VERSION
p46
a.