(lp0
VEXPERIMENT_TYPE
p1
aVCONTACT_PERSON
p2
aVCONTACT_LAB
p3
aVSAMPLE_ID
p4
aVEXPERIMENT_DATE
p5
aVEXPERIMENT_ID
p6
aVTECHNICAL_REPLICATE_ID
p7
aVFULL_LENGTH_PROTOCOL_LINK
p8
aVBIOLOGICAL_REPLICATE_ID
p9
aVEXTRACTION_PROTOCOL
p10
aVEXTRACTION_PROTOCOL_SONICATION_CYCLES
p11
aVEXTRACTION_PROTOCOL_TYPE_OF_SONICATOR
p12
aVDNA_PREPARATION_FRAGMENT_SIZE_RANGE
p13
aVDNA_PREPARATION_INITIAL_DNA_QNTY
p14
aVCHIP_PROTOCOL
p15
aVCHIP_PROTOCOL_CHROMATIN_AMOUNT
p16
aVCHIP_ANTIBODY
p17
aVCHIP_ANTIBODY_CATALOG
p18
aVCHIP_ANTIBODY_LOT
p19
aVCHIP_ANTIBODY_PROVIDER
p20
aVCHIP_PROTOCOL_ANTIBODY_AMOUNT
p21
aVCHIP_PROTOCOL_BEAD_AMOUNT
p22
aVCHIP_PROTOCOL_BEAD_TYPE
p23
aVLIBRARY_GENERATION_PROTOCOL
p24
aVLIBRARY_GENERATION_ADAPTOR_SEQUENCE
p25
aVLIBRARY_GENERATION_PCR_F_PRIMER_SEQUENCE
p26
aVLIBRARY_GENERATION_PCR_R_PRIMER_SEQUENCE
p27
aVLIBRARY_GENERATION_PCR_PRIMER_CONC
p28
aVLIBRARY_GENERATION_PCR_NUMBER_CYCLES
p29
aVLIBRARY_GENERATION_PCR_POLYMERASE_TYPE
p30
aVLIBRARY_GENERATION_PCR_THERMOCYCLING_PROGRAM
p31
aVLIBRARY_GENERATION_PCR_TEMPLATE_CONC
p32
aVLIBRARY_GENERATION_PCR_PRODUCT_ISOLATION_PROTOCOL
p33
aVLIBRARY_GENERATION_PCR_PRODUCT_LENGTH
p34
aVLIBRARY_GENERATION_FRAGMENT_SIZE_SELECTION
p35
aVSEQUENCING_PLATFORM
p36
aVSEQUENCING_PLATFORM_VERSION
p37
aVSEQUENCING_CYCLES
p38
aVSEQUENCING_PE_TYPE
p39
aVSEQUENCING_LANE
p40
aVSEQUENCING_FC_ID
p41
aVSEQUENCING_DATE
p42
aVSEQUENCING_RUN_TYPE
p43
aVSEQUENCING_CHEMISTRY_VERSION
p44
aVSEQUENCING_CLUSTER_GENERATION_KIT_VERSION
p45
aVSEQUENCING_PROCESSING_SOFTWARE_VERSION
p46
aVSEQUENCING_CONTROL_SOFTWARE_VERSION
p47
a.