(lp0
VEXPERIMENT_TYPE
p1
aVCONTACT_PERSON
p2
aVCONTACT_LAB
p3
aVSAMPLE_ID
p4
aVEXPERIMENT_DATE
p5
aVEXPERIMENT_ID
p6
aVTECHNICAL_REPLICATE_ID
p7
aVFULL_LENGTH_PROTOCOL_LINK
p8
aVBIOLOGICAL_REPLICATE_ID
p9
aVEXTRACTION_PROTOCOL
p10
aVEXTRACTION_PROTOCOL_STARTING_NR_CELLS
p11
aVLIBRARY_GENERATION_PROTOCOL
p12
aVLIBRARY_GENERATION_INITIAL_INPUT_QNTY
p13
aVLIBRARY_GENERATION_PCR_F_PRIMER_SEQUENCE
p14
aVLIBRARY_GENERATION_PCR_NUMBER_CYCLES
p15
aVLIBRARY_GENERATION_PCR_POLYMERASE_TYPE
p16
aVLIBRARY_GENERATION_PCR_PRIMER_CONC
p17
aVLIBRARY_GENERATION_PCR_PRODUCT_ISOLATION_PROTOCOL
p18
aVLIBRARY_GENERATION_PCR_R_PRIMER_SEQUENCE
p19
aVLIBRARY_GENERATION_PCR_TEMPLATE_CONC
p20
aVLIBRARY_GENERATION_PCR_THERMOCYCLING_PROGRAM
p21
aVLIBRARY_GENERATION_PCR_PRODUCT_LENGTH
p22
aVLIBRARY_GENERATION_FRAGMENT_SIZE_SELECTION
p23
aVLIBRARY_GENERATION_cDNA_FRAGMENTATION
p24
aVRNA_PROTOCOL_ENRICHMENT
p25
aVRNA_cDNA_PREPARATION_INITIAL_RNA_QNTY
p26
aVRNA_cDNA_PREPARATION_PCR_NUMBER_CYCLES
p27
aVRNA_cDNA_PREPARATION_REVERSE_TRANSCRIPTION_PROTOCOL
p28
aVRNA_EXTRACTION_PROTOCOL
p29
aVRNA_EXTRACTION_PROTOCOL_FRAGMENTATION
p30
aVRNA_PREPARATION_FRAGMENT_SIZE_RANGE
p31
aVRNA_PREPARATION_INITIAL_QNTY
p32
aVRNA_PREPARATION_3'_RNA_ADAPTER_LIGATION_PROTOCOL
p33
aVRNA_PREPARATION_3'_RNA_ADAPTER_SEQUENCE
p34
aVRNA_PREPARATION_5'_DEPHOSPHORYLATION
p35
aVRNA_PREPARATION_5'_PHOSPHORYLATION
p36
aVRNA_PREPARATION_5'_RNA_ADAPTER_LIGATION_PROTOCOL
p37
aVRNA_PREPARATION_5'_RNA_ADAPTER_SEQUENCE
p38
aVRNA_PREPARATION_REVERSE_TRANSCRIPTION_PRIMER_SEQUENCE
p39
aVRNA_PREPARATION_REVERSE_TRANSCRIPTION_PROTOCOL
p40
aVSEQUENCING_PLATFORM
p41
aVSEQUENCING_PLATFORM_VERSION
p42
aVSEQUENCING_CYCLES
p43
aVSEQUENCING_PE_TYPE
p44
aVSEQUENCING_LANE
p45
aVSEQUENCING_DATE
p46
aVSEQUENCING_RUN_TYPE
p47
aVSEQUENCING_CHEMISTRY_VERSION
p48
aVSEQUENCING_CLUSTER_GENERATION_KIT_VERSION
p49
aVSEQUENCING_PROCESSING_SOFTWARE_VERSION
p50
aVSEQUENCING_CONTROL_SOFTWARE_VERSION
p51
a.