(lp0
VEXPERIMENT_ID
p1
aVSAMPLE_ID
p2
aVTECHNICAL_REPLICATE_ID
p3
aVBIOLOGICAL_REPLICATE_ID
p4
aVCONTACT_PERSON
p5
aVCONTACT_LAB
p6
aVEXPERIMENT_DATE
p7
aVEXPERIMENT_TYPE
p8
aVEXTRACTION_PROTOCOL
p9
aVEXTRACTION_PROTOCOL_STARTING_NR_CELLS
p10
aVEXTRACTION_PROTOCOL_SONICATION_FRAGMENT_SIZE_RANGE
p11
aVBISULFITE_CONVERSION_PROTOCOL
p12
aVLIBRARY_GENERATION_ADAPTOR_LIGATION_PROTOCOL
p13
aVLIBRARY_GENERATION_ADAPTOR_SEQUENCE
p14
aVLIBRARY_GENERATION_PROTOCOL
p15
aVLIBRARY_GENERATION_INITIAL_INPUT_QNTY
p16
aVLIBRARY_GENERATION_PCR_F_PRIMER_SEQUENCE
p17
aVLIBRARY_GENERATION_PCR_NUMBER_CYCLES
p18
aVLIBRARY_GENERATION_PCR_POLYMERASE_TYPE
p19
aVLIBRARY_GENERATION_PCR_PRIMER_CONC
p20
aVLIBRARY_GENERATION_PCR_PRODUCT_ISOLATION_PROTOCOL
p21
aVLIBRARY_GENERATION_PCR_R_PRIMER_SEQUENCE
p22
aVLIBRARY_GENERATION_PCR_TEMPLATE_CONC
p23
aVLIBRARY_GENERATION_PCR_THERMOCYCLING_PROGRAM
p24
aVLIBRARY_GENERATION_PCR_PRODUCT_LENGTH
p25
aVLIBRARY_GENERATION_FRAGMENT_SIZE_SELECTION
p26
aVLIBRARY_GENERATION_cDNA_FRAGMENTATION
p27
aVChromatinAccessibility_METHOD
p28
aVChromatinAccessibility_PROTOCOL
p29
aVChromatinAccessibility_CHROMATIN_AMOUNT
p30
aVChromatinAccessibility_ENZYME
p31
aVChromatinAccessibility_ENZYME_PROVIDER
p32
aVChromatinAccessibility_ENZYME_LOT
p33
aVChromatinAccessibility_CHROMATIN_STATUS
p34
aVChromatinAccessibility_ENZYME_AMOUNT
p35
a.