(lp0
VEXPERIMENT_ID
p1
aVSAMPLE_ID
p2
aVTECHNICAL_REPLICATE_ID
p3
aVBIOLOGICAL_REPLICATE_ID
p4
aVCONTACT_PERSON
p5
aVCONTACT_LAB
p6
aVEXPERIMENT_DATE
p7
aVEXPERIMENT_TYPE
p8
aVEXTRACTION_PROTOCOL
p9
aVEXTRACTION_PROTOCOL_STARTING_NR_CELLS
p10
aVEXTRACTION_PROTOCOL_SONICATION_FRAGMENT_SIZE_RANGE
p11
aVBISULFITE_CONVERSION_PROTOCOL
p12
aVLIBRARY_GENERATION_ADAPTOR_LIGATION_PROTOCOL
p13
aVLIBRARY_GENERATION_ADAPTOR_SEQUENCE
p14
aVLIBRARY_GENERATION_PROTOCOL
p15
aVLIBRARY_GENERATION_INITIAL_INPUT_QNTY
p16
aVLIBRARY_GENERATION_PCR_F_PRIMER_SEQUENCE
p17
aVLIBRARY_GENERATION_PCR_NUMBER_CYCLES
p18
aVLIBRARY_GENERATION_PCR_POLYMERASE_TYPE
p19
aVLIBRARY_GENERATION_PCR_PRIMER_CONC
p20
aVLIBRARY_GENERATION_PCR_PRODUCT_ISOLATION_PROTOCOL
p21
aVLIBRARY_GENERATION_PCR_R_PRIMER_SEQUENCE
p22
aVLIBRARY_GENERATION_PCR_TEMPLATE_CONC
p23
aVLIBRARY_GENERATION_PCR_THERMOCYCLING_PROGRAM
p24
aVLIBRARY_GENERATION_PCR_PRODUCT_LENGTH
p25
aVLIBRARY_GENERATION_FRAGMENT_SIZE_SELECTION
p26
aVLIBRARY_GENERATION_cDNA_FRAGMENTATION
p27
aVCHIP_PROTOCOL
p28
aVCHIP_PROTOCOL_CHROMATIN_AMOUNT
p29
aVCHIP_ANTIBODY
p30
aVCHIP_ANTIBODY_CATALOG
p31
aVCHIP_ANTIBODY_LOT
p32
aVCHIP_ANTIBODY_PROVIDER
p33
aVCHIP_PROTOCOL_ANTIBODY_AMOUNT
p34
aVCHIP_PROTOCOL_BEAD_AMOUNT
p35
aVCHIP_PROTOCOL_BEAD_TYPE
p36
aVCHIP_PROTOCOL_PERC_CH2O_CROSSLINKING
p37
aVCHIP_PROTOCOL_DURATION_CROSSLINKING
p38
aVCHIP_PROTOCOL_SHEARING_METHOD
p39
aVCHIP_PROTOCOL_SHEARING_CYCLES
p40
aVCHIP_PROTOCOL_SHEARING_FREQUENCY
p41
aVCHIP_PROTOCOL_IPSTAR_CONDITIONS
p42
aVChromatinAccessibility_METHOD
p43
aVChromatinAccessibility_PROTOCOL
p44
aVChromatinAccessibility_CHROMATIN_AMOUNT
p45
aVChromatinAccessibility_ENZYME
p46
aVChromatinAccessibility_ENZYME_PROVIDER
p47
aVChromatinAccessibility_ENZYME_LOT
p48
aVChromatinAccessibility_CHROMATIN_STATUS
p49
aVChromatinAccessibility_ENZYME_AMOUNT
p50
aVRNA_PROTOCOL_ENRICHMENT
p51
aVRNA_cDNA_PREPARATION_INITIAL_RNA_QNTY
p52
aVRNA_cDNA_PREPARATION_PCR_NUMBER_CYCLES
p53
aVRNA_cDNA_PREPARATION_REVERSE_TRANSCRIPTION_PROTOCOL
p54
aVRNA_EXTRACTION_PROTOCOL_FRAGMENTATION
p55
aVRNA_PREPARATION_FRAGMENT_SIZE_RANGE
p56
aVRNA_PREPARATION_INITIAL_QNTY
p57
aVRNA_EXTRACTION_PROTOCOL
p58
aVRNA_PREPARATION_3'_RNA_ADAPTER_LIGATION_PROTOCOL
p59
aVRNA_PREPARATION_3'_RNA_ADAPTER_SEQUENCE
p60
aVRNA_PREPARATION_5'_DEPHOSPHORYLATION
p61
aVRNA_PREPARATION_5'_PHOSPHORYLATION
p62
aVRNA_PREPARATION_5'_RNA_ADAPTER_LIGATION_PROTOCOL
p63
aVRNA_PREPARATION_5'_RNA_ADAPTER_SEQUENCE
p64
aVRNA_PREPARATION_REVERSE_TRANSCRIPTION_PRIMER_SEQUENCE
p65
aVRNA_PREPARATION_REVERSE_TRANSCRIPTION_PROTOCOL
p66
a.