(lp0
VDEEP_SAMPLE_ID
p1
aVORGANISM
p2
aVSTRAIN
p3
aVSTATUS
p4
aVDISEASE
p5
aVBIOMATERIAL_PROVIDER
p6
aVBIOMATERIAL_TYPE
p7
aVLINE
p8
aVLINEAGE
p9
aVDONOR_ETHNICITY
p10
aVDIFFERENTIATION_STATE
p11
aVDIFFERENTIATION_METHOD
p12
aVPASSAGE
p13
aVMEDIUM
p14
aVDONOR_SEX
p15
aVBATCH
p16
aVCOMMENT
p17
a.