(lp0
VDEEP_SAMPLE_ID
p1
aVORGANISM
p2
aVPOOL
p3
aVDISEASE
p4
aVBIOMATERIAL_PROVIDER
p5
aVBIOMATERIAL_TYPE
p6
aVCELL_TYPE
p7
aVTISSUE_TYPE
p8
aVMARKERS
p9
aVDONOR_ID
p10
aVDONOR_AGE
p11
aVDONOR_AGE_UNIT
p12
aVDONOR_HEALTH_STATUS
p13
aVDONOR_SEX
p14
aVDONOR_ETHNICITY
p15
aVCOMMENT
p16
aVSORTING_PARAMETERS
p17
a.