(lp0
VDEEP_SAMPLE_ID
p1
aVORGANISM
p2
aVPOOL
p3
aVDISEASE
p4
aVBIOMATERIAL_PROVIDER
p5
aVBIOMATERIAL_TYPE
p6
aVCELL_TYPE
p7
aVTISSUE_TYPE
p8
aVDONOR_ID
p9
aVDONOR_AGE
p10
aVDONOR_AGE_UNIT
p11
aVDONOR_HEALTH_STATUS
p12
aVDONOR_SEX
p13
aVDONOR_ETHNICITY
p14
aVCOMMENT
p15
a.