(lp0
VDEEP_SAMPLE_ID
p1
aVORGANISM
p2
aVSTRAIN
p3
aVPOOL
p4
aVSTATUS
p5
aVDISEASE
p6
aVBIOMATERIAL_PROVIDER
p7
aVBIOMATERIAL_TYPE
p8
aVCELL_TYPE
p9
aVDONOR_ID
p10
aVDONOR_AGE
p11
aVDONOR_AGE_UNIT
p12
aVDONOR_HEALTH_STATUS
p13
aVDONOR_SEX
p14
aVDONOR_ETHNICITY
p15
a.