(lp0
VDEEP_SAMPLE_ID
p1
aVORGANISM
p2
aVSTRAIN
p3
aVPOOL
p4
aVSTATUS
p5
aVDISEASE
p6
aVBIOMATERIAL_PROVIDER
p7
aVBIOMATERIAL_TYPE
p8
aVCELL_TYPE
p9
aVMARKERS
p10
aVDONOR_ID
p11
aVDONOR_AGE
p12
aVDONOR_HEALTH_STATUS
p13
aVDONOR_SEX
p14
aVDONOR_ETHNICITY
p15
aVCOMMENT
p16
aVSORTING_PARAMETERS
p17
a.