(lp0
VDEEP_SAMPLE_ID
p1
aVORGANISM
p2
aVSTRAIN
p3
aVPOOL
p4
aVSTATUS
p5
aVDISEASE
p6
aVBIOMATERIAL_PROVIDER
p7
aVBIOMATERIAL_TYPE
p8
aVTISSUE_TYPE
p9
aVTISSUE_DEPOT
p10
aVCOLLECTION_METHOD
p11
aVDONOR_ID
p12
aVDONOR_AGE
p13
aVDONOR_HEALTH_STATUS
p14
aVDONOR_SEX
p15
aVDONOR_ETHNICITY
p16
aVCOMMENT
p17
a.