(lp0
VDEEP_SAMPLE_ID
p1
aVORGANISM
p2
aVPOOL
p3
aVSTATUS
p4
aVDISEASE
p5
aVBIOMATERIAL_PROVIDER
p6
aVBIOMATERIAL_TYPE
p7
aVCELL_TYPE
p8
aVTISSUE_TYPE
p9
aVMARKERS
p10
aVDONOR_ID
p11
aVDONOR_AGE
p12
aVDONOR_AGE_UNIT
p13
aVDONOR_HEALTH_STATUS
p14
aVDONOR_SEX
p15
aVDONOR_ETHNICITY
p16
aVPASSAGE_IF_EXPANDED
p17
aVCOMMENT
p18
aVSORTING_PARAMETERS
p19
a.