(lp0
VDEEP_SAMPLE_ID
p1
aVORGANISM
p2
aVPOOL
p3
aVSTATUS
p4
aVDISEASE
p5
aVBIOMATERIAL_PROVIDER
p6
aVBIOMATERIAL_TYPE
p7
aVCELL_TYPE
p8
aVTISSUE_TYPE
p9
aVMARKERS
p10
aVCULTURE_CONDITIONS
p11
aVDONOR_ID
p12
aVDONOR_AGE
p13
aVDONOR_AGE_UNIT
p14
aVDONOR_HEALTH_STATUS
p15
aVDONOR_SEX
p16
aVDONOR_ETHNICITY
p17
aVPASSAGE_IF_EXPANDED
p18
aVCOMMENT
p19
aVSORTING_PARAMETERS
p20
a.