(lp0
VDEEP_SAMPLE_ID
p1
aVORGANISM
p2
aVPOOL
p3
aVSTATUS
p4
aVDISEASE
p5
aVDISEASE_ONTOLOGY
p6
aVBIOMATERIAL_PROVIDER
p7
aVBIOMATERIAL_TYPE
p8
aVCELL_TYPE
p9
aVTISSUE_TYPE
p10
aVMARKERS
p11
aVDONOR_ID
p12
aVDONOR_AGE
p13
aVDONOR_AGE_UNIT
p14
aVDONOR_HEALTH_STATUS
p15
aVDONOR_SEX
p16
aVDONOR_ETHNICITY
p17
aVPASSAGE_IF_EXPANDED
p18
aVCOMMENT
p19
aVSORTING_PARAMETERS
p20
a.