(lp0
VDEEP_SAMPLE_ID
p1
aVORGANISM
p2
aVSTRAIN
p3
aVPOOL
p4
aVSTATUS
p5
aVDISEASE
p6
aVBIOMATERIAL_PROVIDER
p7
aVBIOMATERIAL_TYPE
p8
aVCELL_TYPE
p9
aVTISSUE_TYPE
p10
aVTISSUE_DEPOT
p11
aVCOLLECTION_METHOD
p12
aVDONOR_ID
p13
aVDONOR_AGE
p14
aVDONOR_AGE_UNIT
p15
aVDONOR_HEALTH_STATUS
p16
aVDONOR_SEX
p17
aVDONOR_ETHNICITY
p18
aVCOMMENT
p19
a.