(lp0
VDEEP_SAMPLE_ID
p1
aVORGANISM
p2
aVPOOL
p3
aVSTATUS
p4
aVDISEASE
p5
aVBIOMATERIAL_PROVIDER
p6
aVBIOMATERIAL_TYPE
p7
aVCELL_TYPE
p8
aVMARKERS
p9
aVDONOR_ID
p10
aVDONOR_AGE
p11
aVDONOR_AGE_UNIT
p12
aVDONOR_HEALTH_STATUS
p13
aVDONOR_SEX
p14
aVDONOR_ETHNICITY
p15
a.