(lp0
VDEEP_SAMPLE_ID
p1
aVORGANISM
p2
aVSTRAIN
p3
aVPOOL
p4
aVSTATUS
p5
aVDISEASE
p6
aVBIOMATERIAL_PROVIDER
p7
aVBIOMATERIAL_TYPE
p8
aVCELL_TYPE
p9
aVTISSUE_TYPE
p10
aVMARKERS
p11
aVCULTURE_CONDITIONS
p12
aVDONOR_ID
p13
aVDONOR_AGE
p14
aVDONOR_HEALTH_STATUS
p15
aVDONOR_SEX
p16
aVDONOR_ETHNICITY
p17
aVPASSAGE_IF_EXPANDED
p18
aVCOMMENT
p19
a.