(lp0
VEXPERIMENT_TYPE
p1
aVCONTACT_PERSON
p2
aVCONTACT_LAB
p3
aVSAMPLE_ID
p4
aVEXPERIMENT_ID
p5
aVEXPERIMENT_DATE
p6
aVTECHNICAL_REPLICATE_ID
p7
aVBIOLOGICAL_REPLICATE_ID
p8
aVEXTRACTION_PROTOCOL
p9
aVEXTRACTION_PROTOCOL_STARTING_NR_CELLS
p10
aVEXTRACTION_PROTOCOL_SONICATION_CYCLES
p11
aVEXTRACTION_PROTOCOL_TYPE_OF_SONICATOR
p12
aVEXTRACTION_PROTOCOL_SONICATION_FRAGMENT_SIZE_RANGE
p13
aVBISULFITE_CONVERSION_PROTOCOL
p14
aVBISULFITE_CONVERSION_KIT_PROVIDER
p15
aVBISULFITE_CONVERSION_THERMOCYCLING_PROGRAM
p16
aVLIBRARY_GENERATION_ADAPTOR_LIGATION_PROTOCOL
p17
aVLIBRARY_GENERATION_ADAPTOR_SEQUENCE
p18
aVLIBRARY_GENERATION_PROTOCOL
p19
aVLIBRARY_GENERATION_INITIAL_INPUT_QNTY
p20
aVLIBRARY_GENERATION_PCR_F_PRIMER_SEQUENCE
p21
aVLIBRARY_GENERATION_PCR_NUMBER_CYCLES
p22
aVLIBRARY_GENERATION_PCR_POLYMERASE_TYPE
p23
aVLIBRARY_GENERATION_PCR_PRODUCT_ISOLATION_PROTOCOL
p24
aVLIBRARY_GENERATION_PCR_R_PRIMER_SEQUENCE
p25
aVLIBRARY_GENERATION_PCR_TEMPLATE_CONC
p26
aVLIBRARY_GENERATION_PCR_THERMOCYCLING_PROGRAM
p27
aVLIBRARY_GENERATION_PCR_PRODUCT_LENGTH
p28
aVLIBRARY_GENERATION_FRAGMENT_SIZE_SELECTION
p29
aVSEQUENCING_PLATFORM
p30
aVSEQUENCING_PLATFORM_VERSION
p31
aVSEQUENCING_CYCLES
p32
aVSEQUENCING_PE_TYPE
p33
aVSEQUENCING_LANE
p34
aVSEQUENCING_DATE
p35
aVSEQUENCING_RUN_TYPE
p36
aVSEQUENCING_CHEMISTRY_VERSION
p37
aVSEQUENCING_CLUSTER_GENERATION_KIT_VERSION
p38
aVSEQUENCING_PROCESSING_SOFTWARE_VERSION
p39
aVSEQUENCING_CONTROL_SOFTWARE_VERSION
p40
a.