(lp0
VEXPERIMENT_TYPE
p1
aVCONTACT_PERSON
p2
aVCONTACT_LAB
p3
aVSAMPLE_ID
p4
aVEXPERIMENT_DATE
p5
aVEXPERIMENT_ID
p6
aVTECHNICAL_REPLICATE_ID
p7
aVFULL_LENGTH_PROTOCOL_LINK
p8
aVBIOLOGICAL_REPLICATE_ID
p9
aVEXTRACTION_PROTOCOL
p10
aVEXTRACTION_PROTOCOL_STARTING_NR_CELLS
p11
aVLIBRARY_GENERATION_PROTOCOL
p12
aVLIBRARY_GENERATION_INITIAL_INPUT_QNTY
p13
aVLIBRARY_GENERATION_PCR_F_PRIMER_SEQUENCE
p14
aVLIBRARY_GENERATION_PCR_NUMBER_CYCLES
p15
aVLIBRARY_GENERATION_PCR_POLYMERASE_TYPE
p16
aVLIBRARY_GENERATION_PCR_PRODUCT_ISOLATION_PROTOCOL
p17
aVLIBRARY_GENERATION_PCR_R_PRIMER_SEQUENCE
p18
aVLIBRARY_GENERATION_PCR_TEMPLATE_CONC
p19
aVLIBRARY_GENERATION_PCR_THERMOCYCLING_PROGRAM
p20
aVLIBRARY_GENERATION_PCR_PRODUCT_LENGTH
p21
aVLIBRARY_GENERATION_FRAGMENT_SIZE_SELECTION
p22
aVRNA_PROTOCOL_ENRICHMENT
p23
aVRNA_cDNA_PREPARATION_INITIAL_RNA_QNTY
p24
aVRNA_cDNA_PREPARATION_PCR_NUMBER_CYCLES
p25
aVRNA_cDNA_PREPARATION_REVERSE_TRANSCRIPTION_PROTOCOL
p26
aVRNA_EXTRACTION_PROTOCOL
p27
aVRNA_PREPARATION_INITIAL_QNTY
p28
aVRNA_PREPARATION_3'_RNA_ADAPTER_LIGATION_PROTOCOL
p29
aVRNA_PREPARATION_3'_RNA_ADAPTER_SEQUENCE
p30
aVRNA_PREPARATION_5'_DEPHOSPHORYLATION
p31
aVRNA_PREPARATION_5'_PHOSPHORYLATION
p32
aVRNA_PREPARATION_5'_RNA_ADAPTER_LIGATION_PROTOCOL
p33
aVRNA_PREPARATION_5'_RNA_ADAPTER_SEQUENCE
p34
aVRNA_PREPARATION_REVERSE_TRANSCRIPTION_PRIMER_SEQUENCE
p35
aVRNA_PREPARATION_REVERSE_TRANSCRIPTION_PROTOCOL
p36
aVSEQUENCING_PLATFORM
p37
aVSEQUENCING_PLATFORM_VERSION
p38
aVSEQUENCING_CYCLES
p39
aVSEQUENCING_PE_TYPE
p40
aVSEQUENCING_LANE
p41
aVSEQUENCING_DATE
p42
aVSEQUENCING_RUN_TYPE
p43
aVSEQUENCING_CHEMISTRY_VERSION
p44
aVSEQUENCING_CLUSTER_GENERATION_KIT_VERSION
p45
aVSEQUENCING_PROCESSING_SOFTWARE_VERSION
p46
aVSEQUENCING_CONTROL_SOFTWARE_VERSION
p47
a.