(lp0
VEXPERIMENT_TYPE
p1
aVCONTACT_PERSON
p2
aVCONTACT_LAB
p3
aVSAMPLE_ID
p4
aVEXPERIMENT_DATE
p5
aVTECHNICAL_REPLICATE_ID
p6
aVBIOLOGICAL_REPLICATE_ID
p7
aVEXTRACTION_PROTOCOL
p8
aVEXTRACTION_PROTOCOL_STARTING_NR_CELLS
p9
aVEXTRACTION_PROTOCOL_TYPE_OF_SONICATOR
p10
aVEXTRACTION_PROTOCOL_SONICATION_FRAGMENT_SIZE_RANGE
p11
aVBISULFITE_CONVERSION_PROTOCOL
p12
aVBISULFITE_CONVERSION_KIT_PROVIDER
p13
aVLIBRARY_GENERATION_ADAPTOR_LIGATION_PROTOCOL
p14
aVLIBRARY_GENERATION_ADAPTOR_SEQUENCE
p15
aVLIBRARY_GENERATION_PROTOCOL
p16
aVLIBRARY_GENERATION_INITIAL_INPUT_QNTY
p17
aVLIBRARY_GENERATION_PCR_F_PRIMER_SEQUENCE
p18
aVLIBRARY_GENERATION_PCR_NUMBER_CYCLES
p19
aVLIBRARY_GENERATION_PCR_POLYMERASE_TYPE
p20
aVLIBRARY_GENERATION_PCR_PRODUCT_ISOLATION_PROTOCOL
p21
aVLIBRARY_GENERATION_PCR_R_PRIMER_SEQUENCE
p22
aVLIBRARY_GENERATION_PCR_PRODUCT_LENGTH
p23
aVLIBRARY_GENERATION_FRAGMENT_SIZE_SELECTION
p24
aVSEQUENCING_PLATFORM
p25
aVSEQUENCING_PLATFORM_VERSION
p26
aVSEQUENCING_CYCLES
p27
aVSEQUENCING_PE_TYPE
p28
aVSEQUENCING_LANE
p29
aVSEQUENCING_DATE
p30
aVSEQUENCING_RUN_TYPE
p31
aVSEQUENCING_CHEMISTRY_VERSION
p32
aVSEQUENCING_CLUSTER_GENERATION_KIT_VERSION
p33
aVSEQUENCING_PROCESSING_SOFTWARE_VERSION
p34
aVSEQUENCING_CONTROL_SOFTWARE_VERSION
p35
aVEXPERIMENT_ID
p36
a.